target datalayout = "e-m:e-p270:32:32-p271:32:32-p272:64:64-i64:64-i128:128-f80:128-n8:16:32:64-S128"
target triple = "x86_64-pc-linux-gnu"

%struct.lzma_mf_s = type { ptr, i32, i32, i32, i32, i32, i32, i32, i32, i32, ptr, ptr, ptr, ptr, i32, i32, i32, i32, i32, i32, i32, i32, i32 }
%struct.lzma_next_coder_s = type { ptr, i64, i64, ptr, ptr, ptr, ptr, ptr, ptr, ptr }
%struct.lzma_coder = type { %struct.lzma_lz_encoder, %struct.lzma_mf_s, %struct.lzma_next_coder_s }
%struct.lzma_lz_encoder = type { ptr, ptr, ptr, ptr, ptr }

; Function Attrs: nounwind uwtable
define internal void @lz_encoder_end(ptr noundef %0, ptr noundef %1) #0 {
  %3 = alloca ptr, align 8
  %4 = alloca ptr, align 8
  %5 = alloca ptr, align 8
  store ptr %0, ptr %3, align 8, !tbaa !4
  store ptr %1, ptr %4, align 8, !tbaa !4
  call void @llvm.lifetime.start.p0(i64 8, ptr %5) #7
  %6 = load ptr, ptr %3, align 8, !tbaa !4
  store ptr %6, ptr %5, align 8, !tbaa !4
  %7 = load ptr, ptr %5, align 8, !tbaa !4
  %8 = getelementptr inbounds nuw %struct.lzma_coder, ptr %7, i32 0, i32 2
  %9 = load ptr, ptr %4, align 8, !tbaa !4
  call void @lzma_next_end(ptr noundef %8, ptr noundef %9)
  %10 = load ptr, ptr %5, align 8, !tbaa !4
  %11 = getelementptr inbounds nuw %struct.lzma_coder, ptr %10, i32 0, i32 1
  %12 = getelementptr inbounds nuw %struct.lzma_mf_s, ptr %11, i32 0, i32 13
  %13 = load ptr, ptr %12, align 8, !tbaa !63
  %14 = load ptr, ptr %4, align 8, !tbaa !4
  call void @lzma_free(ptr noundef %13, ptr noundef %14)
  %15 = load ptr, ptr %5, align 8, !tbaa !4
  %16 = getelementptr inbounds nuw %struct.lzma_coder, ptr %15, i32 0, i32 1
  %17 = getelementptr inbounds nuw %struct.lzma_mf_s, ptr %16, i32 0, i32 12
  %18 = load ptr, ptr %17, align 8, !tbaa !62
  %19 = load ptr, ptr %4, align 8, !tbaa !4
  call void @lzma_free(ptr noundef %18, ptr noundef %19)
  %20 = load ptr, ptr %5, align 8, !tbaa !4
  %21 = getelementptr inbounds nuw %struct.lzma_coder, ptr %20, i32 0, i32 1
  %22 = getelementptr inbounds nuw %struct.lzma_mf_s, ptr %21, i32 0, i32 0
  %23 = load ptr, ptr %22, align 8, !tbaa !60
  %24 = load ptr, ptr %4, align 8, !tbaa !4
  call void @lzma_free(ptr noundef %23, ptr noundef %24)
  %25 = load ptr, ptr %5, align 8, !tbaa !4
  %26 = getelementptr inbounds nuw %struct.lzma_coder, ptr %25, i32 0, i32 0
  %27 = getelementptr inbounds nuw %struct.lzma_lz_encoder, ptr %26, i32 0, i32 2
  %28 = load ptr, ptr %27, align 8, !tbaa !57
  %29 = icmp ne ptr %28, null
  br i1 %29, label %30, label %40

30:                                               ; preds = %2
  %31 = load ptr, ptr %5, align 8, !tbaa !4
  %32 = getelementptr inbounds nuw %struct.lzma_coder, ptr %31, i32 0, i32 0
  %33 = getelementptr inbounds nuw %struct.lzma_lz_encoder, ptr %32, i32 0, i32 2
  %34 = load ptr, ptr %33, align 8, !tbaa !57
  %35 = load ptr, ptr %5, align 8, !tbaa !4
  %36 = getelementptr inbounds nuw %struct.lzma_coder, ptr %35, i32 0, i32 0
  %37 = getelementptr inbounds nuw %struct.lzma_lz_encoder, ptr %36, i32 0, i32 0
  %38 = load ptr, ptr %37, align 8, !tbaa !53
  %39 = load ptr, ptr %4, align 8, !tbaa !4
  call void %34(ptr noundef %38, ptr noundef %39)
  br label %46

40:                                               ; preds = %2
  %41 = load ptr, ptr %5, align 8, !tbaa !4
  %42 = getelementptr inbounds nuw %struct.lzma_coder, ptr %41, i32 0, i32 0
  %43 = getelementptr inbounds nuw %struct.lzma_lz_encoder, ptr %42, i32 0, i32 0
  %44 = load ptr, ptr %43, align 8, !tbaa !53
  %45 = load ptr, ptr %4, align 8, !tbaa !4
  call void @lzma_free(ptr noundef %44, ptr noundef %45)
  br label %46

46:                                               ; preds = %40, %30
  %47 = load ptr, ptr %5, align 8, !tbaa !4
  %48 = load ptr, ptr %4, align 8, !tbaa !4
  call void @lzma_free(ptr noundef %47, ptr noundef %48)
  call void @llvm.lifetime.end.p0(i64 8, ptr %5) #7
  ret void
}