; Function Attrs: nounwind uwtable
define internal void @lz_encoder_end(ptr noundef %0, ptr noundef %1) #0 {
  %3 = getelementptr inbounds nuw i8, ptr %0, i64 160
  tail call void @lzma_next_end(ptr noundef nonnull %3, ptr noundef %1) #7
  %4 = getelementptr inbounds nuw i8, ptr %0, i64 40
  %5 = getelementptr inbounds nuw i8, ptr %0, i64 112
  %6 = load ptr, ptr %5, align 8, !tbaa !73
  tail call void @lzma_free(ptr noundef %6, ptr noundef %1) #7
  %7 = getelementptr inbounds nuw i8, ptr %0, i64 104
  %8 = load ptr, ptr %7, align 8, !tbaa !74
  tail call void @lzma_free(ptr noundef %8, ptr noundef %1) #7
  %9 = load ptr, ptr %4, align 8, !tbaa !65
  tail call void @lzma_free(ptr noundef %9, ptr noundef %1) #7
  %10 = getelementptr inbounds nuw i8, ptr %0, i64 16
  %11 = load ptr, ptr %10, align 8, !tbaa !75
  %.not = icmp eq ptr %11, null
  %12 = load ptr, ptr %0, align 8, !tbaa !70
  br i1 %.not, label %14, label %13

13:                                               ; preds = %2
  tail call void %11(ptr noundef %12, ptr noundef %1) #7
  br label %15

14:                                               ; preds = %2
  tail call void @lzma_free(ptr noundef %12, ptr noundef %1) #7
  br label %15

15:                                               ; preds = %14, %13
  tail call void @lzma_free(ptr noundef nonnull %0, ptr noundef %1) #7
  ret void
}